; Function Attrs: mustprogress uwtable
define hidden void @_ZN3fmt3v114file3dupEi(ptr dead_on_unwind noalias writable writeonly sret(%"class.fmt::v11::file") align 4 captures(none) %0, i32 noundef %1) local_unnamed_addr #6 align 2 personality ptr @__gxx_personality_v0 {
  %3 = alloca %"struct.fmt::v11::detail::format_arg_store.100", align 16
  %4 = load i32, ptr @_ZN12_GLOBAL__N_19dup_countE, align 4, !tbaa !10
  %.not.i = icmp eq i32 %4, 0
  br i1 %.not.i, label %_ZN4test3dupEi.exit, label %5

5:                                                ; preds = %2
  %6 = add nsw i32 %4, 1
  store i32 %6, ptr @_ZN12_GLOBAL__N_19dup_countE, align 4, !tbaa !10
  %.not3.i = icmp eq i32 %4, 3
  br i1 %.not3.i, label %_ZN4test3dupEi.exit, label %_ZN4test3dupEi.exit.thread

_ZN4test3dupEi.exit.thread:                       ; preds = %5
  %7 = tail call ptr @__errno_location() #28
  store i32 4, ptr %7, align 4, !tbaa !10
  br label %10

_ZN4test3dupEi.exit:                              ; preds = %2, %5
  %8 = tail call i32 @dup(i32 noundef %1) #29
  %9 = icmp eq i32 %8, -1
  br i1 %9, label %10, label %17

10:                                               ; preds = %_ZN4test3dupEi.exit, %_ZN4test3dupEi.exit.thread
  %11 = tail call ptr @__cxa_allocate_exception(i64 32) #29
  %12 = tail call ptr @__errno_location() #28
  %13 = load i32, ptr %12, align 4, !tbaa !10
  call void @llvm.lifetime.start.p0(i64 16, ptr nonnull %3) #29, !noalias !48
  store i32 %1, ptr %3, align 16, !tbaa !17, !noalias !48
  invoke void @_ZN3fmt3v1113vsystem_errorEiNS0_17basic_string_viewIcEENS0_17basic_format_argsINS0_7contextEEE(ptr dead_on_unwind writable sret(%"class.std::system_error") align 8 %11, i32 noundef %13, ptr nonnull @.str.62, i64 35, i64 1, ptr nonnull %3)
          to label %14 unwind label %15

14:                                               ; preds = %10
  call void @llvm.lifetime.end.p0(i64 16, ptr nonnull %3) #29, !noalias !48
  call void @__cxa_throw(ptr %11, ptr nonnull @_ZTISt12system_error, ptr nonnull @_ZNSt12system_errorD1Ev) #31
  unreachable

15:                                               ; preds = %10
  %16 = landingpad { ptr, i32 }
          cleanup
  call void @__cxa_free_exception(ptr %11) #29
  resume { ptr, i32 } %16

17:                                               ; preds = %_ZN4test3dupEi.exit
  store i32 %8, ptr %0, align 4, !tbaa !24
  ret void
}